; Function Attrs: mustprogress nofree nounwind uwtable
define internal noundef i32 @_ZL18xdrstdio_putuint32P3XDRPj(ptr nocapture noundef readonly %0, ptr nocapture noundef readonly %1) #6 {
  %3 = alloca i32, align 4
  %4 = alloca i32, align 4
  %5 = load i32, ptr %1, align 4
  call void @llvm.lifetime.start.p0(i64 4, ptr nonnull %3)
  store i32 %5, ptr %3, align 4
  br label %6

6:                                                ; preds = %6, %2
  %indvars.iv.i.i = phi i64 [ 0, %2 ], [ %indvars.iv.next.i.i, %6 ]
  %7 = sub nuw nsw i64 3, %indvars.iv.i.i
  %8 = getelementptr inbounds i8, ptr %3, i64 %7
  %9 = load i8, ptr %8, align 1
  %10 = getelementptr inbounds i8, ptr %4, i64 %indvars.iv.i.i
  store i8 %9, ptr %10, align 1
  %indvars.iv.next.i.i = add nuw nsw i64 %indvars.iv.i.i, 1
  %exitcond.not.i.i = icmp eq i64 %indvars.iv.next.i.i, 4
  br i1 %exitcond.not.i.i, label %_ZL9xdr_htonlj.exit, label %6, !llvm.loop !7

_ZL9xdr_htonlj.exit:                              ; preds = %6
  call void @llvm.lifetime.end.p0(i64 4, ptr nonnull %3)
  %11 = getelementptr inbounds i8, ptr %0, i64 24
  %12 = load ptr, ptr %11, align 8
  %13 = call i64 @fwrite(ptr noundef nonnull %4, i64 noundef 4, i64 noundef 1, ptr noundef %12)
  %.not = icmp eq i64 %13, 1
  %. = zext i1 %.not to i32
  ret i32 %.
}